; Function Attrs: mustprogress nounwind uwtable
define dso_local noundef ptr @_ZN4node13AsyncResource12get_resourceEv(ptr nocapture noundef nonnull readonly align 8 dereferenceable(40) %this) local_unnamed_addr #3 align 2 {
entry:
  %resource_ = getelementptr inbounds i8, ptr %this, i64 16
  %0 = load ptr, ptr %resource_, align 8
  %cmp.i.i = icmp eq ptr %0, null
  br i1 %cmp.i.i, label %_ZN2v89LocalBaseINS_6ObjectEE3NewEPNS_7IsolateEPS1_.exit, label %if.end.i

if.end.i:                                         ; preds = %entry
  %env_ = getelementptr inbounds i8, ptr %this, i64 8
  %1 = load ptr, ptr %env_, align 8
  %isolate_.i = getelementptr inbounds i8, ptr %1, i64 88
  %2 = load ptr, ptr %isolate_.i, align 8
  %3 = load i64, ptr %0, align 8
  %call.i = tail call noundef ptr @_ZN2v811HandleScope12CreateHandleEPNS_8internal7IsolateEm(ptr noundef %2, i64 noundef %3) #9
  br label %_ZN2v89LocalBaseINS_6ObjectEE3NewEPNS_7IsolateEPS1_.exit

_ZN2v89LocalBaseINS_6ObjectEE3NewEPNS_7IsolateEPS1_.exit: ; preds = %entry, %if.end.i
  %retval.i13.sroa.0.0 = phi ptr [ %call.i, %if.end.i ], [ null, %entry ]
  ret ptr %retval.i13.sroa.0.0
}